target datalayout = "e-m:e-p270:32:32-p271:32:32-p272:64:64-i64:64-i128:128-f80:128-n8:16:32:64-S128"
target triple = "x86_64-pc-linux-gnu"

@.str.28 = private unnamed_addr constant [27 x i8] c"unable to get random bytes\00", align 1

; Function Attrs: nounwind uwtable
define dso_local i32 @git_rand(i32 noundef %0) #0 {
  %2 = alloca i32, align 4
  %3 = alloca i32, align 4
  store i32 %0, ptr %2, align 4, !tbaa !11
  call void @llvm.lifetime.start.p0(i64 4, ptr %3) #13
  %4 = load i32, ptr %2, align 4, !tbaa !11
  %5 = call i32 @csprng_bytes(ptr noundef %3, i64 noundef 4, i32 noundef %4)
  %6 = icmp slt i32 %5, 0
  br i1 %6, label %7, label %9

7:                                                ; preds = %1
  %8 = call ptr @_(ptr noundef @.str.28)
  call void (ptr, ...) @die(ptr noundef %8) #14
  unreachable

9:                                                ; preds = %1
  %10 = load i32, ptr %3, align 4, !tbaa !11
  call void @llvm.lifetime.end.p0(i64 4, ptr %3) #13
  ret i32 %10
}