; Function Attrs: nounwind uwtable
define dso_local i32 @git_rand(i32 noundef %0) local_unnamed_addr #0 {
  %2 = alloca i32, align 4
  call void @llvm.lifetime.start.p0(i64 4, ptr nonnull %2) #20
  %3 = call i32 @csprng_bytes(ptr noundef nonnull %2, i64 noundef 4, i32 poison)
  %4 = icmp slt i32 %3, 0
  br i1 %4, label %5, label %7

5:                                                ; preds = %1
  %6 = tail call fastcc ptr @_(ptr noundef nonnull @.str.28)
  tail call void (ptr, ...) @die(ptr noundef %6) #21
  unreachable

7:                                                ; preds = %1
  %8 = load i32, ptr %2, align 4, !tbaa !9
  call void @llvm.lifetime.end.p0(i64 4, ptr nonnull %2) #20
  ret i32 %8
}